target datalayout = "e-m:e-p270:32:32-p271:32:32-p272:64:64-i64:64-i128:128-f80:128-n8:16:32:64-S128"
target triple = "x86_64-pc-linux-gnu"

%struct.PageHeaderData = type { %struct.PageXLogRecPtr, i16, i16, i16, i16, i16, i16, i32, [0 x %struct.ItemIdData] }
%struct.PageXLogRecPtr = type { i32, i32 }
%struct.ItemIdData = type { i32 }
%struct.HashPageOpaqueData = type { i32, i32, i32, i16, i16 }
%struct.HashMetaPageData = type { i32, i32, double, i16, i16, i16, i16, i32, i32, i32, i32, i32, i32, i32, [98 x i32], [1024 x i32] }

@LocalBufferBlockPointers = external global ptr, align 8
@BufferBlocks = external global ptr, align 8

; Function Attrs: inlinehint nounwind uwtable
define internal ptr @BufferGetBlock(i32 noundef %0) #4 {
  %2 = alloca ptr, align 8
  %3 = alloca i32, align 4
  store i32 %0, ptr %3, align 4
  %4 = load i32, ptr %3, align 4
  %5 = icmp slt i32 %4, 0
  br i1 %5, label %6, label %14

6:                                                ; preds = %1
  %7 = load ptr, ptr @LocalBufferBlockPointers, align 8
  %8 = load i32, ptr %3, align 4
  %9 = sub i32 0, %8
  %10 = sub i32 %9, 1
  %11 = sext i32 %10 to i64
  %12 = getelementptr inbounds ptr, ptr %7, i64 %11
  %13 = load ptr, ptr %12, align 8
  store ptr %13, ptr %2, align 8
  br label %21

14:                                               ; preds = %1
  %15 = load ptr, ptr @BufferBlocks, align 8
  %16 = load i32, ptr %3, align 4
  %17 = sub i32 %16, 1
  %18 = sext i32 %17 to i64
  %19 = mul i64 %18, 8192
  %20 = getelementptr inbounds nuw i8, ptr %15, i64 %19
  store ptr %20, ptr %2, align 8
  br label %21

21:                                               ; preds = %14, %6
  %22 = load ptr, ptr %2, align 8
  ret ptr %22
}

; Function Attrs: inlinehint nounwind uwtable
define internal i32 @pg_nextpower2_32(i32 noundef %0) #4 {
  %2 = alloca i32, align 4
  %3 = alloca i32, align 4
  store i32 %0, ptr %3, align 4
  %4 = load i32, ptr %3, align 4
  %5 = load i32, ptr %3, align 4
  %6 = sub i32 %5, 1
  %7 = and i32 %4, %6
  %8 = icmp eq i32 %7, 0
  br i1 %8, label %9, label %11

9:                                                ; preds = %1
  %10 = load i32, ptr %3, align 4
  store i32 %10, ptr %2, align 4
  br label %16

11:                                               ; preds = %1
  %12 = load i32, ptr %3, align 4
  %13 = call i32 @pg_leftmost_one_pos32(i32 noundef %12)
  %14 = add i32 %13, 1
  %15 = shl i32 1, %14
  store i32 %15, ptr %2, align 4
  br label %16

16:                                               ; preds = %11, %9
  %17 = load i32, ptr %2, align 4
  ret i32 %17
}

; Function Attrs: inlinehint nounwind uwtable
define internal i32 @pg_leftmost_one_pos32(i32 noundef %0) #4 {
  %2 = alloca i32, align 4
  store i32 %0, ptr %2, align 4
  %3 = load i32, ptr %2, align 4
  %4 = call i32 @llvm.ctlz.i32(i32 %3, i1 true)
  %5 = sub i32 31, %4
  ret i32 %5
}

; Function Attrs: inlinehint nounwind uwtable
define internal i64 @PageGetPageSize(ptr noundef %0) #4 {
  %2 = alloca ptr, align 8
  store ptr %0, ptr %2, align 8
  %3 = load ptr, ptr %2, align 8
  %4 = getelementptr inbounds nuw %struct.PageHeaderData, ptr %3, i32 0, i32 6
  %5 = load i16, ptr %4, align 2
  %6 = zext i16 %5 to i32
  %7 = and i32 %6, 65280
  %8 = sext i32 %7 to i64
  ret i64 %8
}

; Function Attrs: inlinehint nounwind uwtable
define internal ptr @PageGetContents(ptr noundef %0) #4 {
  %2 = alloca ptr, align 8
  store ptr %0, ptr %2, align 8
  %3 = load ptr, ptr %2, align 8
  %4 = getelementptr inbounds nuw i8, ptr %3, i64 24
  ret ptr %4
}

; Function Attrs: inlinehint nounwind uwtable
define internal void @PageValidateSpecialPointer(ptr noundef %0) #4 {
  %2 = alloca ptr, align 8
  store ptr %0, ptr %2, align 8
  ret void
}

; Function Attrs: nounwind uwtable
define dso_local void @_hash_pageinit(ptr noundef %0, i64 noundef %1) #0 {
  %3 = alloca ptr, align 8
  %4 = alloca i64, align 8
  store ptr %0, ptr %3, align 8
  store i64 %1, ptr %4, align 8
  %5 = load ptr, ptr %3, align 8
  %6 = load i64, ptr %4, align 8
  call void @PageInit(ptr noundef %5, i64 noundef %6, i64 noundef 16)
  ret void
}

; Function Attrs: inlinehint nounwind uwtable
define internal i64 @BufferGetPageSize(i32 noundef %0) #4 {
  %2 = alloca i32, align 4
  store i32 %0, ptr %2, align 4
  ret i64 8192
}

; Function Attrs: inlinehint nounwind uwtable
define internal ptr @BufferGetPage(i32 noundef %0) #4 {
  %2 = alloca i32, align 4
  store i32 %0, ptr %2, align 4
  %3 = load i32, ptr %2, align 4
  %4 = call ptr @BufferGetBlock(i32 noundef %3)
  ret ptr %4
}

; Function Attrs: nounwind uwtable
define dso_local void @_hash_init_metabuffer(i32 noundef %0, double noundef %1, i32 noundef %2, i16 noundef zeroext %3, i1 noundef zeroext %4) #0 {
  %6 = alloca i32, align 4
  %7 = alloca double, align 8
  %8 = alloca i32, align 4
  %9 = alloca i16, align 2
  %10 = alloca i8, align 1
  %11 = alloca ptr, align 8
  %12 = alloca ptr, align 8
  %13 = alloca ptr, align 8
  %14 = alloca double, align 8
  %15 = alloca i32, align 4
  %16 = alloca i32, align 4
  %17 = alloca i32, align 4
  %18 = alloca ptr, align 8
  %19 = alloca i32, align 4
  %20 = alloca i64, align 8
  %21 = alloca ptr, align 8
  %22 = alloca ptr, align 8
  %23 = alloca ptr, align 8
  %24 = alloca i32, align 4
  %25 = alloca i64, align 8
  %26 = alloca ptr, align 8
  %27 = alloca ptr, align 8
  store i32 %0, ptr %6, align 4
  store double %1, ptr %7, align 8
  store i32 %2, ptr %8, align 4
  store i16 %3, ptr %9, align 2
  %28 = zext i1 %4 to i8
  store i8 %28, ptr %10, align 1
  call void @llvm.lifetime.start.p0(i64 8, ptr %11) #9
  call void @llvm.lifetime.start.p0(i64 8, ptr %12) #9
  call void @llvm.lifetime.start.p0(i64 8, ptr %13) #9
  call void @llvm.lifetime.start.p0(i64 8, ptr %14) #9
  call void @llvm.lifetime.start.p0(i64 4, ptr %15) #9
  call void @llvm.lifetime.start.p0(i64 4, ptr %16) #9
  call void @llvm.lifetime.start.p0(i64 4, ptr %17) #9
  %29 = load double, ptr %7, align 8
  %30 = load i16, ptr %9, align 2
  %31 = zext i16 %30 to i32
  %32 = sitofp i32 %31 to double
  %33 = fdiv double %29, %32
  store double %33, ptr %14, align 8
  %34 = load double, ptr %14, align 8
  %35 = fcmp ole double %34, 2.000000e+00
  br i1 %35, label %36, label %37

36:                                               ; preds = %5
  store i32 2, ptr %15, align 4
  br label %47

37:                                               ; preds = %5
  %38 = load double, ptr %14, align 8
  %39 = fcmp oge double %38, 0x41D0000000000000
  br i1 %39, label %40, label %41

40:                                               ; preds = %37
  store i32 1073741824, ptr %15, align 4
  br label %46

41:                                               ; preds = %37
  %42 = load double, ptr %14, align 8
  %43 = fptoui double %42 to i32
  %44 = call i32 @_hash_spareindex(i32 noundef %43)
  %45 = call i32 @_hash_get_totalbuckets(i32 noundef %44)
  store i32 %45, ptr %15, align 4
  br label %46

46:                                               ; preds = %41, %40
  br label %47

47:                                               ; preds = %46, %36
  %48 = load i32, ptr %15, align 4
  %49 = call i32 @_hash_spareindex(i32 noundef %48)
  store i32 %49, ptr %16, align 4
  %50 = load i32, ptr %6, align 4
  %51 = call ptr @BufferGetPage(i32 noundef %50)
  store ptr %51, ptr %13, align 8
  %52 = load i8, ptr %10, align 1, !range !4, !noundef !5
  %53 = trunc i8 %52 to i1
  br i1 %53, label %54, label %58

54:                                               ; preds = %47
  %55 = load ptr, ptr %13, align 8
  %56 = load i32, ptr %6, align 4
  %57 = call i64 @BufferGetPageSize(i32 noundef %56)
  call void @_hash_pageinit(ptr noundef %55, i64 noundef %57)
  br label %58

58:                                               ; preds = %54, %47
  %59 = load ptr, ptr %13, align 8
  call void @PageValidateSpecialPointer(ptr noundef %59)
  %60 = load ptr, ptr %13, align 8
  %61 = load ptr, ptr %13, align 8
  %62 = getelementptr inbounds nuw %struct.PageHeaderData, ptr %61, i32 0, i32 5
  %63 = load i16, ptr %62, align 4
  %64 = zext i16 %63 to i32
  %65 = sext i32 %64 to i64
  %66 = getelementptr inbounds i8, ptr %60, i64 %65
  store ptr %66, ptr %12, align 8
  %67 = load ptr, ptr %12, align 8
  %68 = getelementptr inbounds nuw %struct.HashPageOpaqueData, ptr %67, i32 0, i32 0
  store i32 -1, ptr %68, align 4
  %69 = load ptr, ptr %12, align 8
  %70 = getelementptr inbounds nuw %struct.HashPageOpaqueData, ptr %69, i32 0, i32 1
  store i32 -1, ptr %70, align 4
  %71 = load ptr, ptr %12, align 8
  %72 = getelementptr inbounds nuw %struct.HashPageOpaqueData, ptr %71, i32 0, i32 2
  store i32 -1, ptr %72, align 4
  %73 = load ptr, ptr %12, align 8
  %74 = getelementptr inbounds nuw %struct.HashPageOpaqueData, ptr %73, i32 0, i32 3
  store i16 8, ptr %74, align 4
  %75 = load ptr, ptr %12, align 8
  %76 = getelementptr inbounds nuw %struct.HashPageOpaqueData, ptr %75, i32 0, i32 4
  store i16 -128, ptr %76, align 2
  %77 = load ptr, ptr %13, align 8
  %78 = call ptr @PageGetContents(ptr noundef %77)
  store ptr %78, ptr %11, align 8
  %79 = load ptr, ptr %11, align 8
  %80 = getelementptr inbounds nuw %struct.HashMetaPageData, ptr %79, i32 0, i32 0
  store i32 105121344, ptr %80, align 8
  %81 = load ptr, ptr %11, align 8
  %82 = getelementptr inbounds nuw %struct.HashMetaPageData, ptr %81, i32 0, i32 1
  store i32 4, ptr %82, align 4
  %83 = load ptr, ptr %11, align 8
  %84 = getelementptr inbounds nuw %struct.HashMetaPageData, ptr %83, i32 0, i32 2
  store double 0.000000e+00, ptr %84, align 8
  %85 = load ptr, ptr %11, align 8
  %86 = getelementptr inbounds nuw %struct.HashMetaPageData, ptr %85, i32 0, i32 12
  store i32 0, ptr %86, align 4
  %87 = load i16, ptr %9, align 2
  %88 = load ptr, ptr %11, align 8
  %89 = getelementptr inbounds nuw %struct.HashMetaPageData, ptr %88, i32 0, i32 3
  store i16 %87, ptr %89, align 8
  %90 = load ptr, ptr %13, align 8
  %91 = call i64 @PageGetPageSize(ptr noundef %90)
  %92 = sub i64 %91, 40
  %93 = trunc i64 %92 to i16
  %94 = load ptr, ptr %11, align 8
  %95 = getelementptr inbounds nuw %struct.HashMetaPageData, ptr %94, i32 0, i32 4
  store i16 %93, ptr %95, align 2
  %96 = load ptr, ptr %11, align 8
  %97 = getelementptr inbounds nuw %struct.HashMetaPageData, ptr %96, i32 0, i32 4
  %98 = load i16, ptr %97, align 2
  %99 = zext i16 %98 to i32
  %100 = call i32 @pg_leftmost_one_pos32(i32 noundef %99)
  store i32 %100, ptr %17, align 4
  %101 = load i32, ptr %17, align 4
  %102 = shl i32 1, %101
  %103 = trunc i32 %102 to i16
  %104 = load ptr, ptr %11, align 8
  %105 = getelementptr inbounds nuw %struct.HashMetaPageData, ptr %104, i32 0, i32 5
  store i16 %103, ptr %105, align 4
  %106 = load i32, ptr %17, align 4
  %107 = add i32 %106, 3
  %108 = trunc i32 %107 to i16
  %109 = load ptr, ptr %11, align 8
  %110 = getelementptr inbounds nuw %struct.HashMetaPageData, ptr %109, i32 0, i32 6
  store i16 %108, ptr %110, align 2
  %111 = load i32, ptr %8, align 4
  %112 = load ptr, ptr %11, align 8
  %113 = getelementptr inbounds nuw %struct.HashMetaPageData, ptr %112, i32 0, i32 13
  store i32 %111, ptr %113, align 8
  %114 = load i32, ptr %15, align 4
  %115 = sub i32 %114, 1
  %116 = load ptr, ptr %11, align 8
  %117 = getelementptr inbounds nuw %struct.HashMetaPageData, ptr %116, i32 0, i32 7
  store i32 %115, ptr %117, align 8
  %118 = load i32, ptr %15, align 4
  %119 = add i32 %118, 1
  %120 = call i32 @pg_nextpower2_32(i32 noundef %119)
  %121 = sub i32 %120, 1
  %122 = load ptr, ptr %11, align 8
  %123 = getelementptr inbounds nuw %struct.HashMetaPageData, ptr %122, i32 0, i32 8
  store i32 %121, ptr %123, align 4
  %124 = load ptr, ptr %11, align 8
  %125 = getelementptr inbounds nuw %struct.HashMetaPageData, ptr %124, i32 0, i32 8
  %126 = load i32, ptr %125, align 4
  %127 = lshr i32 %126, 1
  %128 = load ptr, ptr %11, align 8
  %129 = getelementptr inbounds nuw %struct.HashMetaPageData, ptr %128, i32 0, i32 9
  store i32 %127, ptr %129, align 8
  br label %130

130:                                              ; preds = %58
  call void @llvm.lifetime.start.p0(i64 8, ptr %18) #9
  %131 = load ptr, ptr %11, align 8
  %132 = getelementptr inbounds nuw %struct.HashMetaPageData, ptr %131, i32 0, i32 14
  %133 = getelementptr inbounds [98 x i32], ptr %132, i64 0, i64 0
  store ptr %133, ptr %18, align 8
  call void @llvm.lifetime.start.p0(i64 4, ptr %19) #9
  store i32 0, ptr %19, align 4
  call void @llvm.lifetime.start.p0(i64 8, ptr %20) #9
  store i64 392, ptr %20, align 8
  %134 = load ptr, ptr %18, align 8
  %135 = ptrtoint ptr %134 to i64
  %136 = and i64 %135, 7
  %137 = icmp eq i64 %136, 0
  br i1 %137, label %138, label %161

138:                                              ; preds = %130
  %139 = load i64, ptr %20, align 8
  %140 = and i64 %139, 7
  %141 = icmp eq i64 %140, 0
  br i1 %141, label %142, label %161

142:                                              ; preds = %138
  %143 = load i32, ptr %19, align 4
  %144 = icmp eq i32 %143, 0
  br i1 %144, label %145, label %161

145:                                              ; preds = %142
  %146 = load i64, ptr %20, align 8
  %147 = icmp ule i64 %146, 1024
  br i1 %147, label %148, label %161

148:                                              ; preds = %145
  call void @llvm.lifetime.start.p0(i64 8, ptr %21) #9
  %149 = load ptr, ptr %18, align 8
  store ptr %149, ptr %21, align 8
  call void @llvm.lifetime.start.p0(i64 8, ptr %22) #9
  %150 = load ptr, ptr %21, align 8
  %151 = load i64, ptr %20, align 8
  %152 = getelementptr inbounds nuw i8, ptr %150, i64 %151
  store ptr %152, ptr %22, align 8
  br label %153

153:                                              ; preds = %157, %148
  %154 = load ptr, ptr %21, align 8
  %155 = load ptr, ptr %22, align 8
  %156 = icmp ult ptr %154, %155
  br i1 %156, label %157, label %160

157:                                              ; preds = %153
  %158 = load ptr, ptr %21, align 8
  %159 = getelementptr inbounds nuw i64, ptr %158, i32 1
  store ptr %159, ptr %21, align 8
  store i64 0, ptr %158, align 8
  br label %153, !llvm.loop !8

160:                                              ; preds = %153
  call void @llvm.lifetime.end.p0(i64 8, ptr %22) #9
  call void @llvm.lifetime.end.p0(i64 8, ptr %21) #9
  br label %166

161:                                              ; preds = %145, %142, %138, %130
  %162 = load ptr, ptr %18, align 8
  %163 = load i32, ptr %19, align 4
  %164 = trunc i32 %163 to i8
  %165 = load i64, ptr %20, align 8
  call void @llvm.memset.p0.i64(ptr align 1 %162, i8 %164, i64 %165, i1 false)
  br label %166

166:                                              ; preds = %161, %160
  call void @llvm.lifetime.end.p0(i64 8, ptr %20) #9
  call void @llvm.lifetime.end.p0(i64 4, ptr %19) #9
  call void @llvm.lifetime.end.p0(i64 8, ptr %18) #9
  br label %167

167:                                              ; preds = %166
  br label %168

168:                                              ; preds = %167
  br label %169

169:                                              ; preds = %168
  call void @llvm.lifetime.start.p0(i64 8, ptr %23) #9
  %170 = load ptr, ptr %11, align 8
  %171 = getelementptr inbounds nuw %struct.HashMetaPageData, ptr %170, i32 0, i32 15
  %172 = getelementptr inbounds [1024 x i32], ptr %171, i64 0, i64 0
  store ptr %172, ptr %23, align 8
  call void @llvm.lifetime.start.p0(i64 4, ptr %24) #9
  store i32 0, ptr %24, align 4
  call void @llvm.lifetime.start.p0(i64 8, ptr %25) #9
  store i64 4096, ptr %25, align 8
  %173 = load ptr, ptr %23, align 8
  %174 = ptrtoint ptr %173 to i64
  %175 = and i64 %174, 7
  %176 = icmp eq i64 %175, 0
  br i1 %176, label %177, label %200

177:                                              ; preds = %169
  %178 = load i64, ptr %25, align 8
  %179 = and i64 %178, 7
  %180 = icmp eq i64 %179, 0
  br i1 %180, label %181, label %200

181:                                              ; preds = %177
  %182 = load i32, ptr %24, align 4
  %183 = icmp eq i32 %182, 0
  br i1 %183, label %184, label %200

184:                                              ; preds = %181
  %185 = load i64, ptr %25, align 8
  %186 = icmp ule i64 %185, 1024
  br i1 %186, label %187, label %200

187:                                              ; preds = %184
  call void @llvm.lifetime.start.p0(i64 8, ptr %26) #9
  %188 = load ptr, ptr %23, align 8
  store ptr %188, ptr %26, align 8
  call void @llvm.lifetime.start.p0(i64 8, ptr %27) #9
  %189 = load ptr, ptr %26, align 8
  %190 = load i64, ptr %25, align 8
  %191 = getelementptr inbounds nuw i8, ptr %189, i64 %190
  store ptr %191, ptr %27, align 8
  br label %192

192:                                              ; preds = %196, %187
  %193 = load ptr, ptr %26, align 8
  %194 = load ptr, ptr %27, align 8
  %195 = icmp ult ptr %193, %194
  br i1 %195, label %196, label %199

196:                                              ; preds = %192
  %197 = load ptr, ptr %26, align 8
  %198 = getelementptr inbounds nuw i64, ptr %197, i32 1
  store ptr %198, ptr %26, align 8
  store i64 0, ptr %197, align 8
  br label %192, !llvm.loop !9

199:                                              ; preds = %192
  call void @llvm.lifetime.end.p0(i64 8, ptr %27) #9
  call void @llvm.lifetime.end.p0(i64 8, ptr %26) #9
  br label %205

200:                                              ; preds = %184, %181, %177, %169
  %201 = load ptr, ptr %23, align 8
  %202 = load i32, ptr %24, align 4
  %203 = trunc i32 %202 to i8
  %204 = load i64, ptr %25, align 8
  call void @llvm.memset.p0.i64(ptr align 1 %201, i8 %203, i64 %204, i1 false)
  br label %205

205:                                              ; preds = %200, %199
  call void @llvm.lifetime.end.p0(i64 8, ptr %25) #9
  call void @llvm.lifetime.end.p0(i64 4, ptr %24) #9
  call void @llvm.lifetime.end.p0(i64 8, ptr %23) #9
  br label %206

206:                                              ; preds = %205
  br label %207

207:                                              ; preds = %206
  %208 = load ptr, ptr %11, align 8
  %209 = getelementptr inbounds nuw %struct.HashMetaPageData, ptr %208, i32 0, i32 14
  %210 = load i32, ptr %16, align 4
  %211 = zext i32 %210 to i64
  %212 = getelementptr inbounds nuw [98 x i32], ptr %209, i64 0, i64 %211
  store i32 1, ptr %212, align 4
  %213 = load i32, ptr %16, align 4
  %214 = load ptr, ptr %11, align 8
  %215 = getelementptr inbounds nuw %struct.HashMetaPageData, ptr %214, i32 0, i32 10
  store i32 %213, ptr %215, align 4
  %216 = load ptr, ptr %11, align 8
  %217 = getelementptr inbounds nuw %struct.HashMetaPageData, ptr %216, i32 0, i32 11
  store i32 0, ptr %217, align 8
  %218 = load ptr, ptr %11, align 8
  %219 = getelementptr inbounds nuw i8, ptr %218, i64 4544
  %220 = load ptr, ptr %13, align 8
  %221 = ptrtoint ptr %219 to i64
  %222 = ptrtoint ptr %220 to i64
  %223 = sub i64 %221, %222
  %224 = trunc i64 %223 to i16
  %225 = load ptr, ptr %13, align 8
  %226 = getelementptr inbounds nuw %struct.PageHeaderData, ptr %225, i32 0, i32 3
  store i16 %224, ptr %226, align 4
  call void @llvm.lifetime.end.p0(i64 4, ptr %17) #9
  call void @llvm.lifetime.end.p0(i64 4, ptr %16) #9
  call void @llvm.lifetime.end.p0(i64 4, ptr %15) #9
  call void @llvm.lifetime.end.p0(i64 8, ptr %14) #9
  call void @llvm.lifetime.end.p0(i64 8, ptr %13) #9
  call void @llvm.lifetime.end.p0(i64 8, ptr %12) #9
  call void @llvm.lifetime.end.p0(i64 8, ptr %11) #9
  ret void
}