; Function Attrs: nounwind uwtable
define dso_local void @_hash_init_metabuffer(i32 noundef %0, double noundef %1, i32 noundef %2, i16 noundef zeroext %3, i1 noundef zeroext %4) local_unnamed_addr #0 {
  %6 = uitofp i16 %3 to double
  %7 = fdiv double %1, %6
  %8 = fcmp ugt double %7, 2.000000e+00
  br i1 %8, label %9, label %15

9:                                                ; preds = %5
  %10 = fcmp ult double %7, 0x41D0000000000000
  br i1 %10, label %11, label %15

11:                                               ; preds = %9
  %12 = fptoui double %7 to i32
  %13 = tail call i32 @_hash_spareindex(i32 noundef %12) #10
  %14 = tail call i32 @_hash_get_totalbuckets(i32 noundef %13) #10
  br label %15

15:                                               ; preds = %9, %5, %11
  %.0 = phi i32 [ %14, %11 ], [ 2, %5 ], [ 1073741824, %9 ]
  %16 = tail call i32 @_hash_spareindex(i32 noundef %.0) #10
  %17 = icmp slt i32 %0, 0
  br i1 %17, label %18, label %24

18:                                               ; preds = %15
  %19 = load ptr, ptr @LocalBufferBlockPointers, align 8
  %20 = xor i32 %0, -1
  %21 = zext nneg i32 %20 to i64
  %22 = getelementptr inbounds nuw ptr, ptr %19, i64 %21
  %23 = load ptr, ptr %22, align 8
  br label %BufferGetPage.exit

24:                                               ; preds = %15
  %25 = load ptr, ptr @BufferBlocks, align 8
  %26 = add nsw i32 %0, -1
  %27 = sext i32 %26 to i64
  %28 = shl nsw i64 %27, 13
  %29 = getelementptr inbounds nuw i8, ptr %25, i64 %28
  br label %BufferGetPage.exit

BufferGetPage.exit:                               ; preds = %18, %24
  %.0.i.i = phi ptr [ %23, %18 ], [ %29, %24 ]
  br i1 %4, label %30, label %.loopexit

30:                                               ; preds = %BufferGetPage.exit
  tail call void @PageInit(ptr noundef %.0.i.i, i64 noundef 8192, i64 noundef 16) #10
  br label %.loopexit

.loopexit:                                        ; preds = %30, %BufferGetPage.exit
  %31 = getelementptr inbounds nuw i8, ptr %.0.i.i, i64 16
  %32 = load i16, ptr %31, align 4
  %33 = zext i16 %32 to i64
  %34 = getelementptr inbounds nuw i8, ptr %.0.i.i, i64 %33
  store i32 -1, ptr %34, align 4
  %35 = getelementptr inbounds nuw i8, ptr %34, i64 4
  store i32 -1, ptr %35, align 4
  %36 = getelementptr inbounds nuw i8, ptr %34, i64 8
  store i32 -1, ptr %36, align 4
  %37 = getelementptr inbounds nuw i8, ptr %34, i64 12
  store i16 8, ptr %37, align 4
  %38 = getelementptr inbounds nuw i8, ptr %34, i64 14
  store i16 -128, ptr %38, align 2
  %39 = getelementptr inbounds nuw i8, ptr %.0.i.i, i64 24
  store i32 105121344, ptr %39, align 8
  %40 = getelementptr inbounds nuw i8, ptr %.0.i.i, i64 28
  store i32 4, ptr %40, align 4
  %41 = getelementptr inbounds nuw i8, ptr %.0.i.i, i64 32
  store double 0.000000e+00, ptr %41, align 8
  %42 = getelementptr inbounds nuw i8, ptr %.0.i.i, i64 68
  store i32 0, ptr %42, align 4
  %43 = getelementptr inbounds nuw i8, ptr %.0.i.i, i64 40
  store i16 %3, ptr %43, align 8
  %44 = getelementptr i8, ptr %.0.i.i, i64 18
  %.val = load i16, ptr %44, align 2
  %45 = and i16 %.val, -256
  %46 = add i16 %45, -40
  %47 = getelementptr inbounds nuw i8, ptr %.0.i.i, i64 42
  store i16 %46, ptr %47, align 2
  %48 = zext i16 %46 to i32
  %49 = tail call range(i32 0, 33) i32 @llvm.ctlz.i32(i32 %48, i1 true)
  %50 = xor i32 %49, 31
  %51 = shl nuw nsw i32 1, %50
  %52 = trunc nuw i32 %51 to i16
  %53 = getelementptr inbounds nuw i8, ptr %.0.i.i, i64 44
  store i16 %52, ptr %53, align 4
  %54 = trunc nuw nsw i32 %50 to i16
  %55 = add nuw nsw i16 %54, 3
  %56 = getelementptr inbounds nuw i8, ptr %.0.i.i, i64 46
  store i16 %55, ptr %56, align 2
  %57 = getelementptr inbounds nuw i8, ptr %.0.i.i, i64 72
  store i32 %2, ptr %57, align 8
  %58 = add i32 %.0, -1
  %59 = getelementptr inbounds nuw i8, ptr %.0.i.i, i64 48
  store i32 %58, ptr %59, align 8
  %60 = add i32 %.0, 1
  %61 = tail call range(i32 0, 33) i32 @llvm.ctpop.i32(i32 %60)
  %62 = icmp samesign ult i32 %61, 2
  %63 = tail call range(i32 0, 33) i32 @llvm.ctlz.i32(i32 %60, i1 true)
  %64 = xor i32 %63, 31
  %65 = shl nuw i32 2, %64
  %66 = add i32 %65, -1
  %67 = select i1 %62, i32 %.0, i32 %66
  %68 = getelementptr inbounds nuw i8, ptr %.0.i.i, i64 52
  store i32 %67, ptr %68, align 4
  %69 = lshr i32 %67, 1
  %70 = getelementptr inbounds nuw i8, ptr %.0.i.i, i64 56
  store i32 %69, ptr %70, align 8
  %.ptr85 = getelementptr i8, ptr %.0.i.i, i64 76
  tail call void @llvm.memset.p0.i64(ptr noundef nonnull align 1 dereferenceable(392) %.ptr85, i8 0, i64 392, i1 false)
  %71 = getelementptr inbounds nuw i8, ptr %.0.i.i, i64 468
  tail call void @llvm.memset.p0.i64(ptr noundef nonnull align 1 dereferenceable(4096) %71, i8 0, i64 4096, i1 false)
  %72 = zext i32 %16 to i64
  %73 = getelementptr inbounds nuw [98 x i32], ptr %.ptr85, i64 0, i64 %72
  store i32 1, ptr %73, align 4
  %74 = getelementptr inbounds nuw i8, ptr %.0.i.i, i64 60
  store i32 %16, ptr %74, align 4
  %75 = getelementptr inbounds nuw i8, ptr %.0.i.i, i64 64
  store i32 0, ptr %75, align 8
  %76 = getelementptr inbounds nuw i8, ptr %.0.i.i, i64 12
  store i16 4568, ptr %76, align 4
  ret void
}